; ModuleID = '36/1253.c'
source_filename = "36/1253.c"
target datalayout = "e-m:e-p270:32:32-p271:32:32-p272:64:64-i64:64-f80:128-n8:16:32:64-S128"
target triple = "x86_64-pc-linux-gnu"

@.str = private unnamed_addr constant [3 x i8] c"%c\00", align 1
@.str.1 = private unnamed_addr constant [4 x i8] c"YES\00", align 1
@.str.2 = private unnamed_addr constant [3 x i8] c"NO\00", align 1

; Function Attrs: noinline nounwind uwtable
define dso_local i32 @main() #0 {
  %1 = alloca i32, align 4
  %2 = alloca i32, align 4
  %3 = alloca [129 x i32], align 16
  %4 = alloca [129 x i32], align 16
  %5 = alloca i8, align 1
  store i32 0, i32* %1, align 4
  %6 = bitcast [129 x i32]* %3 to i8*
  call void @llvm.memset.p0i8.i64(i8* align 16 %6, i8 0, i64 516, i1 false)
  %7 = bitcast [129 x i32]* %4 to i8*
  call void @llvm.memset.p0i8.i64(i8* align 16 %7, i8 0, i64 516, i1 false)
  %8 = call i32 (i8*, ...) @__isoc99_scanf(i8* getelementptr inbounds ([3 x i8], [3 x i8]* @.str, i64 0, i64 0), i8* %5)
  br label %9

9:                                                ; preds = %13, %0
  %10 = load i8, i8* %5, align 1
  %11 = sext i8 %10 to i32
  %12 = icmp ne i32 %11, 32
  br i1 %12, label %13, label %21

13:                                               ; preds = %9
  %14 = load i8, i8* %5, align 1
  %15 = sext i8 %14 to i16
  %16 = zext i16 %15 to i64
  %17 = getelementptr inbounds [129 x i32], [129 x i32]* %3, i64 0, i64 %16
  %18 = load i32, i32* %17, align 4
  %19 = add nsw i32 %18, 1
  store i32 %19, i32* %17, align 4
  %20 = call i32 (i8*, ...) @__isoc99_scanf(i8* getelementptr inbounds ([3 x i8], [3 x i8]* @.str, i64 0, i64 0), i8* %5)
  br label %9

21:                                               ; preds = %9
  %22 = call i32 (i8*, ...) @__isoc99_scanf(i8* getelementptr inbounds ([3 x i8], [3 x i8]* @.str, i64 0, i64 0), i8* %5)
  br label %23

23:                                               ; preds = %27, %21
  %24 = load i8, i8* %5, align 1
  %25 = sext i8 %24 to i32
  %26 = icmp ne i32 %25, 10
  br i1 %26, label %27, label %35

27:                                               ; preds = %23
  %28 = load i8, i8* %5, align 1
  %29 = sext i8 %28 to i16
  %30 = zext i16 %29 to i64
  %31 = getelementptr inbounds [129 x i32], [129 x i32]* %4, i64 0, i64 %30
  %32 = load i32, i32* %31, align 4
  %33 = add nsw i32 %32, 1
  store i32 %33, i32* %31, align 4
  %34 = call i32 (i8*, ...) @__isoc99_scanf(i8* getelementptr inbounds ([3 x i8], [3 x i8]* @.str, i64 0, i64 0), i8* %5)
  br label %23

35:                                               ; preds = %23
  store i32 1, i32* %2, align 4
  br label %36

36:                                               ; preds = %51, %35
  %37 = load i32, i32* %2, align 4
  %38 = icmp sle i32 %37, 128
  br i1 %38, label %39, label %54

39:                                               ; preds = %36
  %40 = load i32, i32* %2, align 4
  %41 = sext i32 %40 to i64
  %42 = getelementptr inbounds [129 x i32], [129 x i32]* %3, i64 0, i64 %41
  %43 = load i32, i32* %42, align 4
  %44 = load i32, i32* %2, align 4
  %45 = sext i32 %44 to i64
  %46 = getelementptr inbounds [129 x i32], [129 x i32]* %4, i64 0, i64 %45
  %47 = load i32, i32* %46, align 4
  %48 = icmp ne i32 %43, %47
  br i1 %48, label %49, label %50

49:                                               ; preds = %39
  br label %54

50:                                               ; preds = %39
  br label %51

51:                                               ; preds = %50
  %52 = load i32, i32* %2, align 4
  %53 = add nsw i32 %52, 1
  store i32 %53, i32* %2, align 4
  br label %36

54:                                               ; preds = %49, %36
  %55 = load i32, i32* %2, align 4
  %56 = icmp sgt i32 %55, 128
  br i1 %56, label %57, label %59

57:                                               ; preds = %54
  %58 = call i32 (i8*, ...) @printf(i8* getelementptr inbounds ([4 x i8], [4 x i8]* @.str.1, i64 0, i64 0))
  br label %61

59:                                               ; preds = %54
  %60 = call i32 (i8*, ...) @printf(i8* getelementptr inbounds ([3 x i8], [3 x i8]* @.str.2, i64 0, i64 0))
  br label %61

61:                                               ; preds = %59, %57
  ret i32 0
}

; Function Attrs: argmemonly nounwind willreturn
declare void @llvm.memset.p0i8.i64(i8* nocapture writeonly, i8, i64, i1 immarg) #1

declare dso_local i32 @__isoc99_scanf(i8*, ...) #2

declare dso_local i32 @printf(i8*, ...) #2


!llvm.module.flags = !{!0}
!llvm.ident = !{!1}

!0 = !{i32 1, !"wchar_size", i32 4}
!1 = !{!"clang version 10.0.0-4ubuntu1 "}
